target datalayout = "e-m:e-p270:32:32-p271:32:32-p272:64:64-i64:64-i128:128-f80:128-n8:16:32:64-S128"
target triple = "x86_64-pc-linux-gnu"

%"class.o3dgc::DynamicVectorDecoder" = type <{ i64, i64, i64, i64, i64, ptr, %"class.o3dgc::DVEncodeParams", i32, [4 x i8] }>
%"class.o3dgc::DVEncodeParams" = type { i64, i32, i32 }

; Function Attrs: mustprogress uwtable
define hidden noundef i32 @_ZN5o3dgc20DynamicVectorDecoder9IQuantizeEPfmmmPKfS3_m(ptr noundef nonnull align 8 dereferenceable(68) %0, ptr noundef %1, i64 noundef %2, i64 noundef %3, i64 noundef %4, ptr noundef %5, ptr noundef %6, i64 noundef %7) #2 align 2 {
  %9 = alloca ptr, align 8
  %10 = alloca ptr, align 8
  %11 = alloca i64, align 8
  %12 = alloca i64, align 8
  %13 = alloca i64, align 8
  %14 = alloca ptr, align 8
  %15 = alloca ptr, align 8
  %16 = alloca i64, align 8
  %17 = alloca i64, align 8
  %18 = alloca float, align 4
  %19 = alloca float, align 4
  %20 = alloca i64, align 8
  %21 = alloca i32, align 4
  %22 = alloca i64, align 8
  store ptr %0, ptr %9, align 8
  store ptr %1, ptr %10, align 8
  store i64 %2, ptr %11, align 8
  store i64 %3, ptr %12, align 8
  store i64 %4, ptr %13, align 8
  store ptr %5, ptr %14, align 8
  store ptr %6, ptr %15, align 8
  store i64 %7, ptr %16, align 8
  %23 = load ptr, ptr %9, align 8
  call void @llvm.lifetime.start.p0(i64 8, ptr %17) #11
  %24 = load i64, ptr %11, align 8
  %25 = load i64, ptr %12, align 8
  %26 = mul i64 %24, %25
  store i64 %26, ptr %17, align 8
  call void @llvm.lifetime.start.p0(i64 4, ptr %18) #11
  %27 = getelementptr inbounds nuw %"class.o3dgc::DynamicVectorDecoder", ptr %23, i32 0, i32 1
  %28 = load i64, ptr %27, align 8
  %29 = load i64, ptr %17, align 8
  %30 = icmp ult i64 %28, %29
  br i1 %30, label %31, label %47

31:                                               ; preds = %8
  %32 = getelementptr inbounds nuw %"class.o3dgc::DynamicVectorDecoder", ptr %23, i32 0, i32 5
  %33 = load ptr, ptr %32, align 8
  %34 = icmp eq ptr %33, null
  br i1 %34, label %36, label %35

35:                                               ; preds = %31
  call void @_ZdaPv(ptr noundef %33) #12
  br label %36

36:                                               ; preds = %35, %31
  %37 = load i64, ptr %17, align 8
  %38 = getelementptr inbounds nuw %"class.o3dgc::DynamicVectorDecoder", ptr %23, i32 0, i32 1
  store i64 %37, ptr %38, align 8
  %39 = getelementptr inbounds nuw %"class.o3dgc::DynamicVectorDecoder", ptr %23, i32 0, i32 1
  %40 = load i64, ptr %39, align 8
  %41 = call { i64, i1 } @llvm.umul.with.overflow.i64(i64 %40, i64 8)
  %42 = extractvalue { i64, i1 } %41, 1
  %43 = extractvalue { i64, i1 } %41, 0
  %44 = select i1 %42, i64 -1, i64 %43
  %45 = call noalias noundef nonnull ptr @_Znam(i64 noundef %44) #13
  %46 = getelementptr inbounds nuw %"class.o3dgc::DynamicVectorDecoder", ptr %23, i32 0, i32 5
  store ptr %45, ptr %46, align 8
  br label %47

47:                                               ; preds = %36, %8
  call void @llvm.lifetime.start.p0(i64 4, ptr %19) #11
  call void @llvm.lifetime.start.p0(i64 8, ptr %20) #11
  store i64 0, ptr %20, align 8
  br label %48

48:                                               ; preds = %108, %47
  %49 = load i64, ptr %20, align 8
  %50 = load i64, ptr %12, align 8
  %51 = icmp ult i64 %49, %50
  br i1 %51, label %53, label %52

52:                                               ; preds = %48
  store i32 2, ptr %21, align 4
  call void @llvm.lifetime.end.p0(i64 8, ptr %20) #11
  br label %111

53:                                               ; preds = %48
  %54 = load ptr, ptr %15, align 8
  %55 = load i64, ptr %20, align 8
  %56 = getelementptr inbounds nuw float, ptr %54, i64 %55
  %57 = load float, ptr %56, align 4
  %58 = load ptr, ptr %14, align 8
  %59 = load i64, ptr %20, align 8
  %60 = getelementptr inbounds nuw float, ptr %58, i64 %59
  %61 = load float, ptr %60, align 4
  %62 = fsub float %57, %61
  store float %62, ptr %18, align 4
  %63 = load float, ptr %18, align 4
  %64 = fcmp ogt float %63, 0.000000e+00
  br i1 %64, label %65, label %73

65:                                               ; preds = %53
  %66 = load float, ptr %18, align 4
  %67 = load i64, ptr %16, align 8
  %68 = trunc i64 %67 to i32
  %69 = shl i32 1, %68
  %70 = sub nsw i32 %69, 1
  %71 = sitofp i32 %70 to float
  %72 = fdiv float %66, %71
  store float %72, ptr %19, align 4
  br label %74

73:                                               ; preds = %53
  store float 1.000000e+00, ptr %19, align 4
  br label %74

74:                                               ; preds = %73, %65
  call void @llvm.lifetime.start.p0(i64 8, ptr %22) #11
  store i64 0, ptr %22, align 8
  br label %75

75:                                               ; preds = %104, %74
  %76 = load i64, ptr %22, align 8
  %77 = load i64, ptr %11, align 8
  %78 = icmp ult i64 %76, %77
  br i1 %78, label %80, label %79

79:                                               ; preds = %75
  store i32 5, ptr %21, align 4
  call void @llvm.lifetime.end.p0(i64 8, ptr %22) #11
  br label %107

80:                                               ; preds = %75
  %81 = getelementptr inbounds nuw %"class.o3dgc::DynamicVectorDecoder", ptr %23, i32 0, i32 5
  %82 = load ptr, ptr %81, align 8
  %83 = load i64, ptr %22, align 8
  %84 = load i64, ptr %20, align 8
  %85 = load i64, ptr %11, align 8
  %86 = mul i64 %84, %85
  %87 = add i64 %83, %86
  %88 = getelementptr inbounds nuw i64, ptr %82, i64 %87
  %89 = load i64, ptr %88, align 8
  %90 = sitofp i64 %89 to float
  %91 = load float, ptr %19, align 4
  %92 = load ptr, ptr %14, align 8
  %93 = load i64, ptr %20, align 8
  %94 = getelementptr inbounds nuw float, ptr %92, i64 %93
  %95 = load float, ptr %94, align 4
  %96 = call float @llvm.fmuladd.f32(float %90, float %91, float %95)
  %97 = load ptr, ptr %10, align 8
  %98 = load i64, ptr %22, align 8
  %99 = load i64, ptr %13, align 8
  %100 = mul i64 %98, %99
  %101 = load i64, ptr %20, align 8
  %102 = add i64 %100, %101
  %103 = getelementptr inbounds nuw float, ptr %97, i64 %102
  store float %96, ptr %103, align 4
  br label %104

104:                                              ; preds = %80
  %105 = load i64, ptr %22, align 8
  %106 = add i64 %105, 1
  store i64 %106, ptr %22, align 8
  br label %75, !llvm.loop !18

107:                                              ; preds = %79
  br label %108

108:                                              ; preds = %107
  %109 = load i64, ptr %20, align 8
  %110 = add i64 %109, 1
  store i64 %110, ptr %20, align 8
  br label %48, !llvm.loop !19

111:                                              ; preds = %52
  store i32 1, ptr %21, align 4
  call void @llvm.lifetime.end.p0(i64 4, ptr %19) #11
  call void @llvm.lifetime.end.p0(i64 4, ptr %18) #11
  call void @llvm.lifetime.end.p0(i64 8, ptr %17) #11
  ret i32 0
}