; Function Attrs: mustprogress uwtable
define hidden noundef i32 @_ZN5o3dgc20DynamicVectorDecoder9IQuantizeEPfmmmPKfS3_m(ptr noundef nonnull align 8 captures(none) dereferenceable(68) %0, ptr noundef writeonly captures(none) %1, i64 noundef %2, i64 noundef %3, i64 noundef %4, ptr noundef readonly captures(none) %5, ptr noundef readonly captures(none) %6, i64 noundef %7) local_unnamed_addr #5 align 2 {
  %9 = mul i64 %3, %2
  %10 = getelementptr inbounds nuw i8, ptr %0, i64 8
  %11 = load i64, ptr %10, align 8
  %12 = icmp ult i64 %11, %9
  br i1 %12, label %13, label %23

13:                                               ; preds = %8
  %14 = getelementptr inbounds nuw i8, ptr %0, i64 40
  %15 = load ptr, ptr %14, align 8
  %16 = icmp eq ptr %15, null
  br i1 %16, label %18, label %17

17:                                               ; preds = %13
  tail call void @_ZdaPv(ptr noundef nonnull %15) #12
  br label %18

18:                                               ; preds = %17, %13
  store i64 %9, ptr %10, align 8
  %19 = icmp ugt i64 %9, 2305843009213693951
  %20 = shl nuw i64 %9, 3
  %21 = select i1 %19, i64 -1, i64 %20
  %22 = tail call noalias noundef nonnull ptr @_Znam(i64 noundef %21) #14
  store ptr %22, ptr %14, align 8
  br label %23

23:                                               ; preds = %18, %8
  %.not = icmp eq i64 %3, 0
  br i1 %.not, label %._crit_edge37, label %.lr.ph36

.lr.ph36:                                         ; preds = %23
  %24 = trunc i64 %7 to i32
  %notmask = shl nsw i32 -1, %24
  %25 = xor i32 %notmask, -1
  %26 = uitofp nneg i32 %25 to float
  %.not38 = icmp eq i64 %2, 0
  %27 = getelementptr inbounds nuw i8, ptr %0, i64 40
  br i1 %.not38, label %._crit_edge37, label %.lr.ph.us

.lr.ph.us:                                        ; preds = %.lr.ph36, %._crit_edge.us
  %.02734.us = phi i64 [ %46, %._crit_edge.us ], [ 0, %.lr.ph36 ]
  %28 = getelementptr inbounds nuw float, ptr %6, i64 %.02734.us
  %29 = load float, ptr %28, align 4
  %30 = getelementptr inbounds nuw float, ptr %5, i64 %.02734.us
  %31 = load float, ptr %30, align 4
  %32 = fsub float %29, %31
  %33 = fcmp ogt float %32, 0.000000e+00
  %34 = fdiv float %32, %26
  %.028.us = select i1 %33, float %34, float 1.000000e+00
  %invariant.gep.us = getelementptr float, ptr %1, i64 %.02734.us
  %35 = mul i64 %.02734.us, %2
  br label %36

36:                                               ; preds = %.lr.ph.us, %36
  %.033.us = phi i64 [ 0, %.lr.ph.us ], [ %45, %36 ]
  %37 = load ptr, ptr %27, align 8
  %38 = getelementptr i64, ptr %37, i64 %.033.us
  %39 = getelementptr i64, ptr %38, i64 %35
  %40 = load i64, ptr %39, align 8
  %41 = sitofp i64 %40 to float
  %42 = load float, ptr %30, align 4
  %43 = tail call float @llvm.fmuladd.f32(float %41, float %.028.us, float %42)
  %44 = mul i64 %.033.us, %4
  %gep.us = getelementptr float, ptr %invariant.gep.us, i64 %44
  store float %43, ptr %gep.us, align 4
  %45 = add nuw i64 %.033.us, 1
  %exitcond.not = icmp eq i64 %45, %2
  br i1 %exitcond.not, label %._crit_edge.us, label %36, !llvm.loop !17

._crit_edge.us:                                   ; preds = %36
  %46 = add nuw i64 %.02734.us, 1
  %exitcond40.not = icmp eq i64 %46, %3
  br i1 %exitcond40.not, label %._crit_edge37, label %.lr.ph.us, !llvm.loop !18

._crit_edge37:                                    ; preds = %._crit_edge.us, %.lr.ph36, %23
  ret i32 0
}